target datalayout = "e-m:e-p270:32:32-p271:32:32-p272:64:64-i64:64-i128:128-f80:128-n8:16:32:64-S128"
target triple = "x86_64-pc-linux-gnu"

%struct.AVRational = type { i32, i32 }
%struct.Jpeg2000DecoderContext = type { ptr, ptr, %struct.GetByteContext, i32, i32, i32, i32, i32, i32, [4 x i8], [4 x i8], [4 x i8], i8, ptr, i32, %struct.GetByteContext, [4 x i32], [4 x i32], i32, i32, i32, [256 x i32], i8, [4 x i32], i32, i32, i32, i32, i32, %struct.AVRational, [4 x %struct.Jpeg2000CodingStyle], [4 x %struct.Jpeg2000QuantStyle], %struct.Jpeg2000POC, [4 x i8], i32, i32, ptr, %struct.Jpeg2000DSPContext, i8, i8, i8, i8, i8, i8, i32 }
%struct.GetByteContext = type { ptr, ptr, ptr }
%struct.Jpeg2000CodingStyle = type { i32, i32, i8, i8, i8, i8, i8, i8, i8, i8, [34 x i8], [34 x i8], i8 }
%struct.Jpeg2000QuantStyle = type { [99 x i8], [99 x i16], i8, i8 }
%struct.Jpeg2000POC = type { [32 x %struct.Jpeg2000POCEntry], i32, i32 }
%struct.Jpeg2000POCEntry = type { i16, i16, i16, i8, i8, i8 }
%struct.Jpeg2000DSPContext = type { [3 x ptr] }

@.str.73 = private unnamed_addr constant [30 x i8] c"Invalid length for PPM data.\0A\00", align 1

; Function Attrs: alwaysinline nounwind uwtable
define internal i32 @bytestream_get_byte(ptr noundef %0) #4 {
  %2 = alloca ptr, align 8
  store ptr %0, ptr %2, align 8, !tbaa !122
  %3 = load ptr, ptr %2, align 8, !tbaa !122
  %4 = load ptr, ptr %3, align 8, !tbaa !70
  %5 = getelementptr inbounds i8, ptr %4, i64 1
  store ptr %5, ptr %3, align 8, !tbaa !70
  %6 = load ptr, ptr %2, align 8, !tbaa !122
  %7 = load ptr, ptr %6, align 8, !tbaa !70
  %8 = getelementptr inbounds i8, ptr %7, i64 -1
  %9 = getelementptr inbounds i8, ptr %8, i64 0
  %10 = load i8, ptr %9, align 1, !tbaa !89
  %11 = zext i8 %10 to i32
  ret i32 %11
}

; Function Attrs: alwaysinline nounwind uwtable
define internal i32 @bytestream2_get_byteu(ptr noundef %0) #4 {
  %2 = alloca ptr, align 8
  store ptr %0, ptr %2, align 8, !tbaa !71
  %3 = load ptr, ptr %2, align 8, !tbaa !71
  %4 = getelementptr inbounds nuw %struct.GetByteContext, ptr %3, i32 0, i32 0
  %5 = call i32 @bytestream_get_byte(ptr noundef %4)
  ret i32 %5
}

; Function Attrs: alwaysinline nounwind uwtable
define internal i32 @bytestream2_get_bufferu(ptr noundef %0, ptr noundef %1, i32 noundef %2) #4 {
  %4 = alloca ptr, align 8
  %5 = alloca ptr, align 8
  %6 = alloca i32, align 4
  store ptr %0, ptr %4, align 8, !tbaa !71
  store ptr %1, ptr %5, align 8, !tbaa !70
  store i32 %2, ptr %6, align 4, !tbaa !48
  %7 = load ptr, ptr %5, align 8, !tbaa !70
  %8 = load ptr, ptr %4, align 8, !tbaa !71
  %9 = getelementptr inbounds nuw %struct.GetByteContext, ptr %8, i32 0, i32 0
  %10 = load ptr, ptr %9, align 8, !tbaa !73
  %11 = load i32, ptr %6, align 4, !tbaa !48
  %12 = zext i32 %11 to i64
  call void @llvm.memcpy.p0.p0.i64(ptr align 1 %7, ptr align 1 %10, i64 %12, i1 false)
  %13 = load i32, ptr %6, align 4, !tbaa !48
  %14 = load ptr, ptr %4, align 8, !tbaa !71
  %15 = getelementptr inbounds nuw %struct.GetByteContext, ptr %14, i32 0, i32 0
  %16 = load ptr, ptr %15, align 8, !tbaa !73
  %17 = zext i32 %13 to i64
  %18 = getelementptr inbounds nuw i8, ptr %16, i64 %17
  store ptr %18, ptr %15, align 8, !tbaa !73
  %19 = load i32, ptr %6, align 4, !tbaa !48
  ret i32 %19
}

; Function Attrs: alwaysinline nounwind uwtable
define internal i32 @bytestream2_get_byte(ptr noundef %0) #4 {
  %2 = alloca i32, align 4
  %3 = alloca ptr, align 8
  store ptr %0, ptr %3, align 8, !tbaa !71
  %4 = load ptr, ptr %3, align 8, !tbaa !71
  %5 = getelementptr inbounds nuw %struct.GetByteContext, ptr %4, i32 0, i32 1
  %6 = load ptr, ptr %5, align 8, !tbaa !75
  %7 = load ptr, ptr %3, align 8, !tbaa !71
  %8 = getelementptr inbounds nuw %struct.GetByteContext, ptr %7, i32 0, i32 0
  %9 = load ptr, ptr %8, align 8, !tbaa !73
  %10 = ptrtoint ptr %6 to i64
  %11 = ptrtoint ptr %9 to i64
  %12 = sub i64 %10, %11
  %13 = icmp slt i64 %12, 1
  br i1 %13, label %14, label %20

14:                                               ; preds = %1
  %15 = load ptr, ptr %3, align 8, !tbaa !71
  %16 = getelementptr inbounds nuw %struct.GetByteContext, ptr %15, i32 0, i32 1
  %17 = load ptr, ptr %16, align 8, !tbaa !75
  %18 = load ptr, ptr %3, align 8, !tbaa !71
  %19 = getelementptr inbounds nuw %struct.GetByteContext, ptr %18, i32 0, i32 0
  store ptr %17, ptr %19, align 8, !tbaa !73
  store i32 0, ptr %2, align 4
  br label %23

20:                                               ; preds = %1
  %21 = load ptr, ptr %3, align 8, !tbaa !71
  %22 = call i32 @bytestream2_get_byteu(ptr noundef %21)
  store i32 %22, ptr %2, align 4
  br label %23

23:                                               ; preds = %20, %14
  %24 = load i32, ptr %2, align 4
  ret i32 %24
}

; Function Attrs: nounwind uwtable
define internal i32 @get_ppm(ptr noundef %0, i32 noundef %1) #1 {
  %3 = alloca i32, align 4
  %4 = alloca ptr, align 8
  %5 = alloca i32, align 4
  %6 = alloca ptr, align 8
  %7 = alloca i32, align 4
  store ptr %0, ptr %4, align 8, !tbaa !29
  store i32 %1, ptr %5, align 4, !tbaa !48
  call void @llvm.lifetime.start.p0(i64 8, ptr %6) #12
  %8 = load i32, ptr %5, align 4, !tbaa !48
  %9 = icmp slt i32 %8, 3
  br i1 %9, label %10, label %14

10:                                               ; preds = %2
  %11 = load ptr, ptr %4, align 8, !tbaa !29
  %12 = getelementptr inbounds nuw %struct.Jpeg2000DecoderContext, ptr %11, i32 0, i32 1
  %13 = load ptr, ptr %12, align 8, !tbaa !43
  call void (ptr, i32, ptr, ...) @av_log(ptr noundef %13, i32 noundef 16, ptr noundef @.str.73)
  store i32 -1094995529, ptr %3, align 4
  store i32 1, ptr %7, align 4
  br label %60

14:                                               ; preds = %2
  %15 = load ptr, ptr %4, align 8, !tbaa !29
  %16 = getelementptr inbounds nuw %struct.Jpeg2000DecoderContext, ptr %15, i32 0, i32 2
  %17 = call i32 @bytestream2_get_byte(ptr noundef %16)
  %18 = load ptr, ptr %4, align 8, !tbaa !29
  %19 = getelementptr inbounds nuw %struct.Jpeg2000DecoderContext, ptr %18, i32 0, i32 13
  %20 = load ptr, ptr %19, align 8, !tbaa !111
  %21 = load ptr, ptr %4, align 8, !tbaa !29
  %22 = getelementptr inbounds nuw %struct.Jpeg2000DecoderContext, ptr %21, i32 0, i32 14
  %23 = load i32, ptr %22, align 8, !tbaa !112
  %24 = load i32, ptr %5, align 4, !tbaa !48
  %25 = add nsw i32 %23, %24
  %26 = sub nsw i32 %25, 3
  %27 = sext i32 %26 to i64
  %28 = call ptr @av_realloc(ptr noundef %20, i64 noundef %27)
  store ptr %28, ptr %6, align 8, !tbaa !118
  %29 = load ptr, ptr %6, align 8, !tbaa !118
  %30 = icmp ne ptr %29, null
  br i1 %30, label %31, label %35

31:                                               ; preds = %14
  %32 = load ptr, ptr %6, align 8, !tbaa !118
  %33 = load ptr, ptr %4, align 8, !tbaa !29
  %34 = getelementptr inbounds nuw %struct.Jpeg2000DecoderContext, ptr %33, i32 0, i32 13
  store ptr %32, ptr %34, align 8, !tbaa !111
  br label %36

35:                                               ; preds = %14
  store i32 -12, ptr %3, align 4
  store i32 1, ptr %7, align 4
  br label %60

36:                                               ; preds = %31
  %37 = load ptr, ptr %4, align 8, !tbaa !29
  %38 = getelementptr inbounds nuw %struct.Jpeg2000DecoderContext, ptr %37, i32 0, i32 12
  store i8 1, ptr %38, align 4, !tbaa !102
  %39 = load ptr, ptr %4, align 8, !tbaa !29
  %40 = getelementptr inbounds nuw %struct.Jpeg2000DecoderContext, ptr %39, i32 0, i32 15
  call void @llvm.memset.p0.i64(ptr align 8 %40, i8 0, i64 24, i1 false)
  %41 = load ptr, ptr %4, align 8, !tbaa !29
  %42 = getelementptr inbounds nuw %struct.Jpeg2000DecoderContext, ptr %41, i32 0, i32 2
  %43 = load ptr, ptr %4, align 8, !tbaa !29
  %44 = getelementptr inbounds nuw %struct.Jpeg2000DecoderContext, ptr %43, i32 0, i32 13
  %45 = load ptr, ptr %44, align 8, !tbaa !111
  %46 = load ptr, ptr %4, align 8, !tbaa !29
  %47 = getelementptr inbounds nuw %struct.Jpeg2000DecoderContext, ptr %46, i32 0, i32 14
  %48 = load i32, ptr %47, align 8, !tbaa !112
  %49 = sext i32 %48 to i64
  %50 = getelementptr inbounds i8, ptr %45, i64 %49
  %51 = load i32, ptr %5, align 4, !tbaa !48
  %52 = sub nsw i32 %51, 3
  %53 = call i32 @bytestream2_get_bufferu(ptr noundef %42, ptr noundef %50, i32 noundef %52)
  %54 = load i32, ptr %5, align 4, !tbaa !48
  %55 = sub nsw i32 %54, 3
  %56 = load ptr, ptr %4, align 8, !tbaa !29
  %57 = getelementptr inbounds nuw %struct.Jpeg2000DecoderContext, ptr %56, i32 0, i32 14
  %58 = load i32, ptr %57, align 8, !tbaa !112
  %59 = add nsw i32 %58, %55
  store i32 %59, ptr %57, align 8, !tbaa !112
  store i32 0, ptr %3, align 4
  store i32 1, ptr %7, align 4
  br label %60

60:                                               ; preds = %36, %35, %10
  call void @llvm.lifetime.end.p0(i64 8, ptr %6) #12
  %61 = load i32, ptr %3, align 4
  ret i32 %61
}