; Function Attrs: nounwind uwtable
define internal fastcc range(i32 -1094995529, 1) i32 @get_ppm(ptr noundef captures(none) %0, i32 noundef range(i32 2, 65536) %1) unnamed_addr #1 {
  %3 = icmp samesign ult i32 %1, 3
  br i1 %3, label %4, label %bytestream2_get_byte.exit

4:                                                ; preds = %2
  %5 = getelementptr inbounds nuw i8, ptr %0, i64 8
  %6 = load ptr, ptr %5, align 8, !tbaa !35
  tail call void (ptr, i32, ptr, ...) @av_log(ptr noundef %6, i32 noundef 16, ptr noundef nonnull @.str.73) #11
  br label %36

bytestream2_get_byte.exit:                        ; preds = %2
  %7 = getelementptr inbounds nuw i8, ptr %0, i64 16
  %8 = getelementptr inbounds nuw i8, ptr %0, i64 24
  %9 = load ptr, ptr %8, align 8, !tbaa !41
  %10 = load ptr, ptr %7, align 8, !tbaa !39
  %11 = ptrtoint ptr %9 to i64
  %12 = ptrtoint ptr %10 to i64
  %13 = sub i64 %11, %12
  %14 = icmp slt i64 %13, 1
  %15 = getelementptr inbounds nuw i8, ptr %10, i64 1
  %storemerge = select i1 %14, ptr %9, ptr %15
  store ptr %storemerge, ptr %7, align 8, !tbaa !43
  %16 = getelementptr inbounds nuw i8, ptr %0, i64 80
  %17 = load ptr, ptr %16, align 8, !tbaa !103
  %18 = getelementptr inbounds nuw i8, ptr %0, i64 88
  %19 = load i32, ptr %18, align 8, !tbaa !102
  %20 = add nsw i32 %1, -3
  %21 = add i32 %20, %19
  %22 = sext i32 %21 to i64
  %23 = tail call ptr @av_realloc(ptr noundef %17, i64 noundef %22) #11
  %.not = icmp eq ptr %23, null
  br i1 %.not, label %36, label %24

24:                                               ; preds = %bytestream2_get_byte.exit
  store ptr %23, ptr %16, align 8, !tbaa !103
  %25 = getelementptr inbounds nuw i8, ptr %0, i64 76
  store i8 1, ptr %25, align 4, !tbaa !61
  %26 = getelementptr inbounds nuw i8, ptr %0, i64 96
  tail call void @llvm.memset.p0.i64(ptr noundef nonnull align 8 dereferenceable(24) %26, i8 0, i64 24, i1 false)
  %27 = load i32, ptr %18, align 8, !tbaa !102
  %28 = sext i32 %27 to i64
  %29 = getelementptr inbounds i8, ptr %23, i64 %28
  %30 = load ptr, ptr %7, align 8, !tbaa !39
  %31 = zext nneg i32 %20 to i64
  tail call void @llvm.memcpy.p0.p0.i64(ptr nonnull align 1 %29, ptr align 1 %30, i64 %31, i1 false)
  %32 = load ptr, ptr %7, align 8, !tbaa !39
  %33 = getelementptr inbounds nuw i8, ptr %32, i64 %31
  store ptr %33, ptr %7, align 8, !tbaa !39
  %34 = load i32, ptr %18, align 8, !tbaa !102
  %35 = add nsw i32 %34, %20
  store i32 %35, ptr %18, align 8, !tbaa !102
  br label %36

36:                                               ; preds = %bytestream2_get_byte.exit, %24, %4
  %.0 = phi i32 [ -1094995529, %4 ], [ 0, %24 ], [ -12, %bytestream2_get_byte.exit ]
  ret i32 %.0
}